; Function Attrs: mustprogress nounwind uwtable
define dso_local void @_ZN4node8profiler24V8HeapProfilerConnection3EndEv(ptr noundef nonnull align 8 dereferenceable(97) %this) unnamed_addr #3 align 2 {
entry:
  %env_ = getelementptr inbounds i8, ptr %this, i64 80
  %0 = load ptr, ptr %env_, align 8
  %ending_ = getelementptr inbounds i8, ptr %this, i64 96
  %arrayidx.i.i = getelementptr inbounds i8, ptr %0, i64 2307
  %1 = load i8, ptr %arrayidx.i.i, align 1
  %2 = and i8 %1, 1
  %tobool.i.i.not = icmp eq i8 %2, 0
  br i1 %tobool.i.i.not, label %_ZN4node5DebugIJRbEEEvPNS_16EnabledDebugListENS_13DebugCategoryEPKcDpOT_.exit, label %if.end.i

if.end.i:                                         ; preds = %entry
  %3 = load ptr, ptr @stderr, align 8
  tail call void @_ZN4node7FPrintFIJRbEEEvP8_IO_FILEPKcDpOT_(ptr noundef %3, ptr noundef nonnull @.str.37, ptr noundef nonnull align 1 dereferenceable(1) %ending_) #23
  br label %_ZN4node5DebugIJRbEEEvPNS_16EnabledDebugListENS_13DebugCategoryEPKcDpOT_.exit

_ZN4node5DebugIJRbEEEvPNS_16EnabledDebugListENS_13DebugCategoryEPKcDpOT_.exit: ; preds = %entry, %if.end.i
  %4 = load i8, ptr %ending_, align 8
  %5 = and i8 %4, 1
  %tobool.not = icmp eq i8 %5, 0
  br i1 %tobool.not, label %if.end, label %return

if.end:                                           ; preds = %_ZN4node5DebugIJRbEEEvPNS_16EnabledDebugListENS_13DebugCategoryEPKcDpOT_.exit
  store i8 1, ptr %ending_, align 8
  %call = tail call noundef i32 @_ZN4node8profiler20V8ProfilerConnection15DispatchMessageEPKcS3_b(ptr noundef nonnull align 8 dereferenceable(88) %this, ptr noundef nonnull @.str.38, ptr noundef null, i1 noundef zeroext true)
  br label %return

return:                                           ; preds = %_ZN4node5DebugIJRbEEEvPNS_16EnabledDebugListENS_13DebugCategoryEPKcDpOT_.exit, %if.end
  ret void
}